; Function Attrs: nounwind uwtable
define internal fastcc void @ReleaseCamera(ptr noundef nonnull %0) unnamed_addr #1 {
  %2 = load ptr, ptr %0, align 8
  tail call void @SDL_UnlockMutex_REAL(ptr noundef %2) #11
  %3 = getelementptr inbounds nuw i8, ptr %0, i64 20
  %4 = tail call i32 @SDL_AddAtomicInt_REAL(ptr noundef nonnull %3, i32 noundef -1) #11
  %5 = icmp eq i32 %4, 1
  br i1 %5, label %6, label %UnrefPhysicalCamera.exit

6:                                                ; preds = %1
  %7 = load ptr, ptr getelementptr inbounds nuw (i8, ptr @camera_driver, i64 88), align 8
  tail call void @SDL_LockRWLockForWriting_REAL(ptr noundef %7) #11
  %8 = load ptr, ptr getelementptr inbounds nuw (i8, ptr @camera_driver, i64 96), align 8
  %9 = getelementptr inbounds nuw i8, ptr %0, i64 108
  %10 = load i32, ptr %9, align 4
  %11 = zext i32 %10 to i64
  %12 = inttoptr i64 %11 to ptr
  %13 = tail call zeroext i1 @SDL_RemoveFromHashTable(ptr noundef %8, ptr noundef %12) #11
  br i1 %13, label %14, label %16

14:                                               ; preds = %6
  %15 = tail call i32 @SDL_AddAtomicInt_REAL(ptr noundef nonnull getelementptr inbounds nuw (i8, ptr @camera_driver, i64 128), i32 noundef -1) #11
  br label %16

16:                                               ; preds = %14, %6
  %17 = load ptr, ptr getelementptr inbounds nuw (i8, ptr @camera_driver, i64 88), align 8
  tail call void @SDL_UnlockRWLock_REAL(ptr noundef %17) #11
  br label %UnrefPhysicalCamera.exit

UnrefPhysicalCamera.exit:                         ; preds = %1, %16
  ret void
}